; Function Attrs: nounwind uwtable
define void @tq_free(ptr noundef %0) local_unnamed_addr #0 {
  %2 = load ptr, ptr %0, align 8, !tbaa !4
  %.not = icmp eq ptr %2, null
  br i1 %.not, label %10, label %3

3:                                                ; preds = %1
  %4 = getelementptr inbounds nuw i8, ptr %2, i64 16
  tail call void @av_container_fifo_free(ptr noundef nonnull %4) #5
  %5 = getelementptr inbounds nuw i8, ptr %2, i64 24
  tail call void @av_fifo_freep2(ptr noundef nonnull %5) #5
  tail call void @av_freep(ptr noundef nonnull %2) #5
  %6 = getelementptr inbounds nuw i8, ptr %2, i64 72
  %7 = tail call i32 @pthread_cond_destroy(ptr noundef nonnull %6) #5
  %8 = getelementptr inbounds nuw i8, ptr %2, i64 32
  %9 = tail call i32 @pthread_mutex_destroy(ptr noundef nonnull %8) #5
  tail call void @av_freep(ptr noundef nonnull %0) #5
  br label %10

10:                                               ; preds = %1, %3
  ret void
}